; Function Attrs: mustprogress nounwind uwtable
define hidden void @_ZN6hermes9ParameterC2EPNS_8FunctionENS_10IdentifierEb(ptr noundef nonnull align 8 dereferenceable(56) %this, ptr noundef %parent, ptr %name.coerce, i1 noundef zeroext %isThisParameter) unnamed_addr #0 align 2 {
entry:
  %valueType.i = getelementptr inbounds i8, ptr %this, i64 2
  store i16 1023, ptr %valueType.i, align 2
  %numBitmask_.i.i = getelementptr inbounds i8, ptr %this, i64 4
  store i16 7, ptr %numBitmask_.i.i, align 4
  %Users.i = getelementptr inbounds i8, ptr %this, i64 8
  %add.ptr.i.i.i.i.i.i = getelementptr inbounds i8, ptr %this, i64 24
  store ptr %add.ptr.i.i.i.i.i.i, ptr %Users.i, align 8
  %Size.i.i.i.i.i.i = getelementptr inbounds i8, ptr %this, i64 16
  store i32 0, ptr %Size.i.i.i.i.i.i, align 8
  %Capacity2.i.i.i.i.i.i = getelementptr inbounds i8, ptr %this, i64 20
  store i32 2, ptr %Capacity2.i.i.i.i.i.i, align 4
  store i8 125, ptr %this, align 8
  %Parent = getelementptr inbounds i8, ptr %this, i64 40
  store ptr %parent, ptr %Parent, align 8
  %Name = getelementptr inbounds i8, ptr %this, i64 48
  store ptr %name.coerce, ptr %Name, align 8
  br i1 %isThisParameter, label %if.then, label %if.else

if.then:                                          ; preds = %entry
  %thisParameter.i = getelementptr inbounds i8, ptr %parent, i64 224
  store ptr %this, ptr %thisParameter.i, align 8
  br label %if.end

if.else:                                          ; preds = %entry
  %Parameters.i = getelementptr inbounds i8, ptr %parent, i64 96
  %Size.i.i.i = getelementptr inbounds i8, ptr %parent, i64 104
  %0 = load i32, ptr %Size.i.i.i, align 8
  %Capacity.i.i.i = getelementptr inbounds i8, ptr %parent, i64 108
  %1 = load i32, ptr %Capacity.i.i.i, align 4
  %cmp.not.i.i = icmp ult i32 %0, %1
  br i1 %cmp.not.i.i, label %_ZN6hermes8Function12addParameterEPNS_9ParameterE.exit, label %if.then.i.i

if.then.i.i:                                      ; preds = %if.else
  %add.ptr.i.i.i.i.i = getelementptr inbounds i8, ptr %parent, i64 112
  tail call void @_ZN4llvh15SmallVectorBase8grow_podEPvmm(ptr noundef nonnull align 8 dereferenceable(16) %Parameters.i, ptr noundef nonnull %add.ptr.i.i.i.i.i, i64 noundef 0, i64 noundef 8) #26
  %.pre.i.i = load i32, ptr %Size.i.i.i, align 8
  br label %_ZN6hermes8Function12addParameterEPNS_9ParameterE.exit

_ZN6hermes8Function12addParameterEPNS_9ParameterE.exit: ; preds = %if.else, %if.then.i.i
  %2 = phi i32 [ %.pre.i.i, %if.then.i.i ], [ %0, %if.else ]
  %3 = load ptr, ptr %Parameters.i, align 8
  %conv.i3.i.i = zext i32 %2 to i64
  %add.ptr.i.i.i = getelementptr inbounds ptr, ptr %3, i64 %conv.i3.i.i
  %4 = ptrtoint ptr %this to i64
  store i64 %4, ptr %add.ptr.i.i.i, align 1
  %5 = load i32, ptr %Size.i.i.i, align 8
  %add.i.i = add i32 %5, 1
  store i32 %add.i.i, ptr %Size.i.i.i, align 8
  br label %if.end

if.end:                                           ; preds = %_ZN6hermes8Function12addParameterEPNS_9ParameterE.exit, %if.then
  ret void
}